target datalayout = "e-m:e-p270:32:32-p271:32:32-p272:64:64-i64:64-i128:128-f80:128-n8:16:32:64-S128"
target triple = "x86_64-pc-linux-gnu"

%struct.ASN1_TEMPLATE_st = type { i64, i64, i64, ptr, ptr }

@ESS_SIGNING_CERT_it.local_it = internal constant { i8, [7 x i8], i64, ptr, i64, ptr, i64, ptr } { i8 1, [7 x i8] zeroinitializer, i64 16, ptr @ESS_SIGNING_CERT_seq_tt, i64 2, ptr null, i64 16, ptr @.str }, align 8
@ESS_SIGNING_CERT_seq_tt = internal constant [2 x %struct.ASN1_TEMPLATE_st] [%struct.ASN1_TEMPLATE_st { i64 4, i64 0, i64 0, ptr @.str.8, ptr @ESS_CERT_ID_it }, %struct.ASN1_TEMPLATE_st { i64 5, i64 0, i64 8, ptr @.str.9, ptr @POLICYINFO_it }], align 16
@.str = private unnamed_addr constant [17 x i8] c"ESS_SIGNING_CERT\00", align 1
@ESS_SIGNING_CERT_V2_it.local_it = internal constant { i8, [7 x i8], i64, ptr, i64, ptr, i64, ptr } { i8 1, [7 x i8] zeroinitializer, i64 16, ptr @ESS_SIGNING_CERT_V2_seq_tt, i64 2, ptr null, i64 16, ptr @.str.1 }, align 8
@ESS_SIGNING_CERT_V2_seq_tt = internal constant [2 x %struct.ASN1_TEMPLATE_st] [%struct.ASN1_TEMPLATE_st { i64 4, i64 0, i64 0, ptr @.str.8, ptr @ESS_CERT_ID_V2_it }, %struct.ASN1_TEMPLATE_st { i64 5, i64 0, i64 8, ptr @.str.9, ptr @POLICYINFO_it }], align 16
@.str.1 = private unnamed_addr constant [20 x i8] c"ESS_SIGNING_CERT_V2\00", align 1
@ESS_ISSUER_SERIAL_it.local_it = internal constant { i8, [7 x i8], i64, ptr, i64, ptr, i64, ptr } { i8 1, [7 x i8] zeroinitializer, i64 16, ptr @ESS_ISSUER_SERIAL_seq_tt, i64 2, ptr null, i64 16, ptr @.str.2 }, align 8
@ESS_ISSUER_SERIAL_seq_tt = internal constant [2 x %struct.ASN1_TEMPLATE_st] [%struct.ASN1_TEMPLATE_st { i64 4, i64 0, i64 0, ptr @.str.3, ptr @GENERAL_NAME_it }, %struct.ASN1_TEMPLATE_st { i64 0, i64 0, i64 8, ptr @.str.4, ptr @ASN1_INTEGER_it }], align 16
@.str.2 = private unnamed_addr constant [18 x i8] c"ESS_ISSUER_SERIAL\00", align 1
@.str.3 = private unnamed_addr constant [7 x i8] c"issuer\00", align 1
@.str.4 = private unnamed_addr constant [7 x i8] c"serial\00", align 1
@ESS_CERT_ID_it.local_it = internal constant { i8, [7 x i8], i64, ptr, i64, ptr, i64, ptr } { i8 1, [7 x i8] zeroinitializer, i64 16, ptr @ESS_CERT_ID_seq_tt, i64 2, ptr null, i64 16, ptr @.str.5 }, align 8
@ESS_CERT_ID_seq_tt = internal constant [2 x %struct.ASN1_TEMPLATE_st] [%struct.ASN1_TEMPLATE_st { i64 0, i64 0, i64 0, ptr @.str.6, ptr @ASN1_OCTET_STRING_it }, %struct.ASN1_TEMPLATE_st { i64 1, i64 0, i64 8, ptr @.str.7, ptr @ESS_ISSUER_SERIAL_it }], align 16
@.str.5 = private unnamed_addr constant [12 x i8] c"ESS_CERT_ID\00", align 1
@.str.6 = private unnamed_addr constant [5 x i8] c"hash\00", align 1
@.str.7 = private unnamed_addr constant [14 x i8] c"issuer_serial\00", align 1
@.str.8 = private unnamed_addr constant [9 x i8] c"cert_ids\00", align 1
@.str.9 = private unnamed_addr constant [12 x i8] c"policy_info\00", align 1
@ESS_CERT_ID_V2_it.local_it = internal constant { i8, [7 x i8], i64, ptr, i64, ptr, i64, ptr } { i8 1, [7 x i8] zeroinitializer, i64 16, ptr @ESS_CERT_ID_V2_seq_tt, i64 3, ptr null, i64 24, ptr @.str.10 }, align 8
@ESS_CERT_ID_V2_seq_tt = internal constant [3 x %struct.ASN1_TEMPLATE_st] [%struct.ASN1_TEMPLATE_st { i64 1, i64 0, i64 0, ptr @.str.11, ptr @X509_ALGOR_it }, %struct.ASN1_TEMPLATE_st { i64 0, i64 0, i64 8, ptr @.str.6, ptr @ASN1_OCTET_STRING_it }, %struct.ASN1_TEMPLATE_st { i64 1, i64 0, i64 16, ptr @.str.7, ptr @ESS_ISSUER_SERIAL_it }], align 16
@.str.10 = private unnamed_addr constant [15 x i8] c"ESS_CERT_ID_V2\00", align 1
@.str.11 = private unnamed_addr constant [9 x i8] c"hash_alg\00", align 1

; Function Attrs: nounwind uwtable
define ptr @d2i_ESS_ISSUER_SERIAL(ptr noundef %0, ptr noundef %1, i64 noundef %2) #0 {
  %4 = alloca ptr, align 8
  %5 = alloca ptr, align 8
  %6 = alloca i64, align 8
  store ptr %0, ptr %4, align 8, !tbaa !3
  store ptr %1, ptr %5, align 8, !tbaa !8
  store i64 %2, ptr %6, align 8, !tbaa !10
  %7 = load ptr, ptr %4, align 8, !tbaa !3
  %8 = load ptr, ptr %5, align 8, !tbaa !8
  %9 = load i64, ptr %6, align 8, !tbaa !10
  %10 = call ptr @ESS_ISSUER_SERIAL_it()
  %11 = call ptr @ASN1_item_d2i(ptr noundef %7, ptr noundef %8, i64 noundef %9, ptr noundef %10)
  ret ptr %11
}

declare ptr @ASN1_item_d2i(ptr noundef, ptr noundef, i64 noundef, ptr noundef) #1

; Function Attrs: nounwind uwtable
define internal ptr @ESS_ISSUER_SERIAL_it() #0 {
  ret ptr @ESS_ISSUER_SERIAL_it.local_it
}

; Function Attrs: nounwind uwtable
define i32 @i2d_ESS_ISSUER_SERIAL(ptr noundef %0, ptr noundef %1) #0 {
  %3 = alloca ptr, align 8
  %4 = alloca ptr, align 8
  store ptr %0, ptr %3, align 8, !tbaa !12
  store ptr %1, ptr %4, align 8, !tbaa !8
  %5 = load ptr, ptr %3, align 8, !tbaa !12
  %6 = load ptr, ptr %4, align 8, !tbaa !8
  %7 = call ptr @ESS_ISSUER_SERIAL_it()
  %8 = call i32 @ASN1_item_i2d(ptr noundef %5, ptr noundef %6, ptr noundef %7)
  ret i32 %8
}

declare i32 @ASN1_item_i2d(ptr noundef, ptr noundef, ptr noundef) #1

; Function Attrs: nounwind uwtable
define ptr @ESS_ISSUER_SERIAL_new() #0 {
  %1 = call ptr @ESS_ISSUER_SERIAL_it()
  %2 = call ptr @ASN1_item_new(ptr noundef %1)
  ret ptr %2
}

declare ptr @ASN1_item_new(ptr noundef) #1

; Function Attrs: nounwind uwtable
define void @ESS_ISSUER_SERIAL_free(ptr noundef %0) #0 {
  %2 = alloca ptr, align 8
  store ptr %0, ptr %2, align 8, !tbaa !12
  %3 = load ptr, ptr %2, align 8, !tbaa !12
  %4 = call ptr @ESS_ISSUER_SERIAL_it()
  call void @ASN1_item_free(ptr noundef %3, ptr noundef %4)
  ret void
}

declare void @ASN1_item_free(ptr noundef, ptr noundef) #1

; Function Attrs: nounwind uwtable
define ptr @ESS_ISSUER_SERIAL_dup(ptr noundef %0) #0 {
  %2 = alloca ptr, align 8
  store ptr %0, ptr %2, align 8, !tbaa !12
  %3 = call ptr @ESS_ISSUER_SERIAL_it()
  %4 = load ptr, ptr %2, align 8, !tbaa !12
  %5 = call ptr @ASN1_item_dup(ptr noundef %3, ptr noundef %4)
  ret ptr %5
}

declare ptr @ASN1_item_dup(ptr noundef, ptr noundef) #1

; Function Attrs: nounwind uwtable
define ptr @d2i_ESS_CERT_ID(ptr noundef %0, ptr noundef %1, i64 noundef %2) #0 {
  %4 = alloca ptr, align 8
  %5 = alloca ptr, align 8
  %6 = alloca i64, align 8
  store ptr %0, ptr %4, align 8, !tbaa !14
  store ptr %1, ptr %5, align 8, !tbaa !8
  store i64 %2, ptr %6, align 8, !tbaa !10
  %7 = load ptr, ptr %4, align 8, !tbaa !14
  %8 = load ptr, ptr %5, align 8, !tbaa !8
  %9 = load i64, ptr %6, align 8, !tbaa !10
  %10 = call ptr @ESS_CERT_ID_it()
  %11 = call ptr @ASN1_item_d2i(ptr noundef %7, ptr noundef %8, i64 noundef %9, ptr noundef %10)
  ret ptr %11
}

; Function Attrs: nounwind uwtable
define internal ptr @ESS_CERT_ID_it() #0 {
  ret ptr @ESS_CERT_ID_it.local_it
}

; Function Attrs: nounwind uwtable
define i32 @i2d_ESS_CERT_ID(ptr noundef %0, ptr noundef %1) #0 {
  %3 = alloca ptr, align 8
  %4 = alloca ptr, align 8
  store ptr %0, ptr %3, align 8, !tbaa !16
  store ptr %1, ptr %4, align 8, !tbaa !8
  %5 = load ptr, ptr %3, align 8, !tbaa !16
  %6 = load ptr, ptr %4, align 8, !tbaa !8
  %7 = call ptr @ESS_CERT_ID_it()
  %8 = call i32 @ASN1_item_i2d(ptr noundef %5, ptr noundef %6, ptr noundef %7)
  ret i32 %8
}

; Function Attrs: nounwind uwtable
define ptr @ESS_CERT_ID_new() #0 {
  %1 = call ptr @ESS_CERT_ID_it()
  %2 = call ptr @ASN1_item_new(ptr noundef %1)
  ret ptr %2
}

; Function Attrs: nounwind uwtable
define void @ESS_CERT_ID_free(ptr noundef %0) #0 {
  %2 = alloca ptr, align 8
  store ptr %0, ptr %2, align 8, !tbaa !16
  %3 = load ptr, ptr %2, align 8, !tbaa !16
  %4 = call ptr @ESS_CERT_ID_it()
  call void @ASN1_item_free(ptr noundef %3, ptr noundef %4)
  ret void
}

; Function Attrs: nounwind uwtable
define ptr @ESS_CERT_ID_dup(ptr noundef %0) #0 {
  %2 = alloca ptr, align 8
  store ptr %0, ptr %2, align 8, !tbaa !16
  %3 = call ptr @ESS_CERT_ID_it()
  %4 = load ptr, ptr %2, align 8, !tbaa !16
  %5 = call ptr @ASN1_item_dup(ptr noundef %3, ptr noundef %4)
  ret ptr %5
}

; Function Attrs: nounwind uwtable
define ptr @ESS_SIGNING_CERT_it() #0 {
  ret ptr @ESS_SIGNING_CERT_it.local_it
}

; Function Attrs: nounwind uwtable
define ptr @d2i_ESS_SIGNING_CERT(ptr noundef %0, ptr noundef %1, i64 noundef %2) #0 {
  %4 = alloca ptr, align 8
  %5 = alloca ptr, align 8
  %6 = alloca i64, align 8
  store ptr %0, ptr %4, align 8, !tbaa !18
  store ptr %1, ptr %5, align 8, !tbaa !8
  store i64 %2, ptr %6, align 8, !tbaa !10
  %7 = load ptr, ptr %4, align 8, !tbaa !18
  %8 = load ptr, ptr %5, align 8, !tbaa !8
  %9 = load i64, ptr %6, align 8, !tbaa !10
  %10 = call ptr @ESS_SIGNING_CERT_it()
  %11 = call ptr @ASN1_item_d2i(ptr noundef %7, ptr noundef %8, i64 noundef %9, ptr noundef %10)
  ret ptr %11
}

; Function Attrs: nounwind uwtable
define i32 @i2d_ESS_SIGNING_CERT(ptr noundef %0, ptr noundef %1) #0 {
  %3 = alloca ptr, align 8
  %4 = alloca ptr, align 8
  store ptr %0, ptr %3, align 8, !tbaa !20
  store ptr %1, ptr %4, align 8, !tbaa !8
  %5 = load ptr, ptr %3, align 8, !tbaa !20
  %6 = load ptr, ptr %4, align 8, !tbaa !8
  %7 = call ptr @ESS_SIGNING_CERT_it()
  %8 = call i32 @ASN1_item_i2d(ptr noundef %5, ptr noundef %6, ptr noundef %7)
  ret i32 %8
}

; Function Attrs: nounwind uwtable
define ptr @ESS_SIGNING_CERT_new() #0 {
  %1 = call ptr @ESS_SIGNING_CERT_it()
  %2 = call ptr @ASN1_item_new(ptr noundef %1)
  ret ptr %2
}

; Function Attrs: nounwind uwtable
define void @ESS_SIGNING_CERT_free(ptr noundef %0) #0 {
  %2 = alloca ptr, align 8
  store ptr %0, ptr %2, align 8, !tbaa !20
  %3 = load ptr, ptr %2, align 8, !tbaa !20
  %4 = call ptr @ESS_SIGNING_CERT_it()
  call void @ASN1_item_free(ptr noundef %3, ptr noundef %4)
  ret void
}

; Function Attrs: nounwind uwtable
define ptr @ESS_SIGNING_CERT_dup(ptr noundef %0) #0 {
  %2 = alloca ptr, align 8
  store ptr %0, ptr %2, align 8, !tbaa !20
  %3 = call ptr @ESS_SIGNING_CERT_it()
  %4 = load ptr, ptr %2, align 8, !tbaa !20
  %5 = call ptr @ASN1_item_dup(ptr noundef %3, ptr noundef %4)
  ret ptr %5
}

; Function Attrs: nounwind uwtable
define ptr @d2i_ESS_CERT_ID_V2(ptr noundef %0, ptr noundef %1, i64 noundef %2) #0 {
  %4 = alloca ptr, align 8
  %5 = alloca ptr, align 8
  %6 = alloca i64, align 8
  store ptr %0, ptr %4, align 8, !tbaa !22
  store ptr %1, ptr %5, align 8, !tbaa !8
  store i64 %2, ptr %6, align 8, !tbaa !10
  %7 = load ptr, ptr %4, align 8, !tbaa !22
  %8 = load ptr, ptr %5, align 8, !tbaa !8
  %9 = load i64, ptr %6, align 8, !tbaa !10
  %10 = call ptr @ESS_CERT_ID_V2_it()
  %11 = call ptr @ASN1_item_d2i(ptr noundef %7, ptr noundef %8, i64 noundef %9, ptr noundef %10)
  ret ptr %11
}

; Function Attrs: nounwind uwtable
define internal ptr @ESS_CERT_ID_V2_it() #0 {
  ret ptr @ESS_CERT_ID_V2_it.local_it
}

; Function Attrs: nounwind uwtable
define i32 @i2d_ESS_CERT_ID_V2(ptr noundef %0, ptr noundef %1) #0 {
  %3 = alloca ptr, align 8
  %4 = alloca ptr, align 8
  store ptr %0, ptr %3, align 8, !tbaa !24
  store ptr %1, ptr %4, align 8, !tbaa !8
  %5 = load ptr, ptr %3, align 8, !tbaa !24
  %6 = load ptr, ptr %4, align 8, !tbaa !8
  %7 = call ptr @ESS_CERT_ID_V2_it()
  %8 = call i32 @ASN1_item_i2d(ptr noundef %5, ptr noundef %6, ptr noundef %7)
  ret i32 %8
}

; Function Attrs: nounwind uwtable
define ptr @ESS_CERT_ID_V2_new() #0 {
  %1 = call ptr @ESS_CERT_ID_V2_it()
  %2 = call ptr @ASN1_item_new(ptr noundef %1)
  ret ptr %2
}

; Function Attrs: nounwind uwtable
define void @ESS_CERT_ID_V2_free(ptr noundef %0) #0 {
  %2 = alloca ptr, align 8
  store ptr %0, ptr %2, align 8, !tbaa !24
  %3 = load ptr, ptr %2, align 8, !tbaa !24
  %4 = call ptr @ESS_CERT_ID_V2_it()
  call void @ASN1_item_free(ptr noundef %3, ptr noundef %4)
  ret void
}

; Function Attrs: nounwind uwtable
define ptr @ESS_CERT_ID_V2_dup(ptr noundef %0) #0 {
  %2 = alloca ptr, align 8
  store ptr %0, ptr %2, align 8, !tbaa !24
  %3 = call ptr @ESS_CERT_ID_V2_it()
  %4 = load ptr, ptr %2, align 8, !tbaa !24
  %5 = call ptr @ASN1_item_dup(ptr noundef %3, ptr noundef %4)
  ret ptr %5
}

; Function Attrs: nounwind uwtable
define ptr @ESS_SIGNING_CERT_V2_it() #0 {
  ret ptr @ESS_SIGNING_CERT_V2_it.local_it
}

; Function Attrs: nounwind uwtable
define ptr @d2i_ESS_SIGNING_CERT_V2(ptr noundef %0, ptr noundef %1, i64 noundef %2) #0 {
  %4 = alloca ptr, align 8
  %5 = alloca ptr, align 8
  %6 = alloca i64, align 8
  store ptr %0, ptr %4, align 8, !tbaa !26
  store ptr %1, ptr %5, align 8, !tbaa !8
  store i64 %2, ptr %6, align 8, !tbaa !10
  %7 = load ptr, ptr %4, align 8, !tbaa !26
  %8 = load ptr, ptr %5, align 8, !tbaa !8
  %9 = load i64, ptr %6, align 8, !tbaa !10
  %10 = call ptr @ESS_SIGNING_CERT_V2_it()
  %11 = call ptr @ASN1_item_d2i(ptr noundef %7, ptr noundef %8, i64 noundef %9, ptr noundef %10)
  ret ptr %11
}

; Function Attrs: nounwind uwtable
define i32 @i2d_ESS_SIGNING_CERT_V2(ptr noundef %0, ptr noundef %1) #0 {
  %3 = alloca ptr, align 8
  %4 = alloca ptr, align 8
  store ptr %0, ptr %3, align 8, !tbaa !28
  store ptr %1, ptr %4, align 8, !tbaa !8
  %5 = load ptr, ptr %3, align 8, !tbaa !28
  %6 = load ptr, ptr %4, align 8, !tbaa !8
  %7 = call ptr @ESS_SIGNING_CERT_V2_it()
  %8 = call i32 @ASN1_item_i2d(ptr noundef %5, ptr noundef %6, ptr noundef %7)
  ret i32 %8
}

; Function Attrs: nounwind uwtable
define ptr @ESS_SIGNING_CERT_V2_new() #0 {
  %1 = call ptr @ESS_SIGNING_CERT_V2_it()
  %2 = call ptr @ASN1_item_new(ptr noundef %1)
  ret ptr %2
}

; Function Attrs: nounwind uwtable
define void @ESS_SIGNING_CERT_V2_free(ptr noundef %0) #0 {
  %2 = alloca ptr, align 8
  store ptr %0, ptr %2, align 8, !tbaa !28
  %3 = load ptr, ptr %2, align 8, !tbaa !28
  %4 = call ptr @ESS_SIGNING_CERT_V2_it()
  call void @ASN1_item_free(ptr noundef %3, ptr noundef %4)
  ret void
}

; Function Attrs: nounwind uwtable
define ptr @ESS_SIGNING_CERT_V2_dup(ptr noundef %0) #0 {
  %2 = alloca ptr, align 8
  store ptr %0, ptr %2, align 8, !tbaa !28
  %3 = call ptr @ESS_SIGNING_CERT_V2_it()
  %4 = load ptr, ptr %2, align 8, !tbaa !28
  %5 = call ptr @ASN1_item_dup(ptr noundef %3, ptr noundef %4)
  ret ptr %5
}

declare ptr @GENERAL_NAME_it() #1

declare ptr @ASN1_INTEGER_it() #1

declare ptr @ASN1_OCTET_STRING_it() #1

declare ptr @POLICYINFO_it() #1

declare ptr @X509_ALGOR_it() #1


!llvm.module.flags = !{!0, !1, !2}

!0 = !{i32 1, !"wchar_size", i32 4}
!1 = !{i32 8, !"PIC Level", i32 2}
!2 = !{i32 7, !"uwtable", i32 2}
!3 = !{!4, !4, i64 0}
!4 = !{!"p2 _ZTS17ESS_issuer_serial", !5, i64 0}
!5 = !{!"any pointer", !6, i64 0}
!6 = !{!"omnipotent char", !7, i64 0}
!7 = !{!"Simple C/C++ TBAA"}
!8 = !{!9, !9, i64 0}
!9 = !{!"p2 omnipotent char", !5, i64 0}
!10 = !{!11, !11, i64 0}
!11 = !{!"long", !6, i64 0}
!12 = !{!13, !13, i64 0}
!13 = !{!"p1 _ZTS17ESS_issuer_serial", !5, i64 0}
!14 = !{!15, !15, i64 0}
!15 = !{!"p2 _ZTS11ESS_cert_id", !5, i64 0}
!16 = !{!17, !17, i64 0}
!17 = !{!"p1 _ZTS11ESS_cert_id", !5, i64 0}
!18 = !{!19, !19, i64 0}
!19 = !{!"p2 _ZTS16ESS_signing_cert", !5, i64 0}
!20 = !{!21, !21, i64 0}
!21 = !{!"p1 _ZTS16ESS_signing_cert", !5, i64 0}
!22 = !{!23, !23, i64 0}
!23 = !{!"p2 _ZTS17ESS_cert_id_v2_st", !5, i64 0}
!24 = !{!25, !25, i64 0}
!25 = !{!"p1 _ZTS17ESS_cert_id_v2_st", !5, i64 0}
!26 = !{!27, !27, i64 0}
!27 = !{!"p2 _ZTS22ESS_signing_cert_v2_st", !5, i64 0}
!28 = !{!29, !29, i64 0}
!29 = !{!"p1 _ZTS22ESS_signing_cert_v2_st", !5, i64 0}
