; ModuleID = 'bench/openssl/original/ess_asn1.ll'
source_filename = "bench/openssl/original/ess_asn1.ll"
target datalayout = "e-m:e-p270:32:32-p271:32:32-p272:64:64-i64:64-i128:128-f80:128-n8:16:32:64-S128"
target triple = "x86_64-pc-linux-gnu"

%struct.ASN1_TEMPLATE_st = type { i64, i64, i64, ptr, ptr }

@ESS_SIGNING_CERT_it.local_it = internal constant { i8, [7 x i8], i64, ptr, i64, ptr, i64, ptr } { i8 1, [7 x i8] zeroinitializer, i64 16, ptr @ESS_SIGNING_CERT_seq_tt, i64 2, ptr null, i64 16, ptr @.str }, align 8
@ESS_SIGNING_CERT_seq_tt = internal constant [2 x %struct.ASN1_TEMPLATE_st] [%struct.ASN1_TEMPLATE_st { i64 4, i64 0, i64 0, ptr @.str.8, ptr @ESS_CERT_ID_it }, %struct.ASN1_TEMPLATE_st { i64 5, i64 0, i64 8, ptr @.str.9, ptr @POLICYINFO_it }], align 16
@.str = private unnamed_addr constant [17 x i8] c"ESS_SIGNING_CERT\00", align 1
@ESS_SIGNING_CERT_V2_it.local_it = internal constant { i8, [7 x i8], i64, ptr, i64, ptr, i64, ptr } { i8 1, [7 x i8] zeroinitializer, i64 16, ptr @ESS_SIGNING_CERT_V2_seq_tt, i64 2, ptr null, i64 16, ptr @.str.1 }, align 8
@ESS_SIGNING_CERT_V2_seq_tt = internal constant [2 x %struct.ASN1_TEMPLATE_st] [%struct.ASN1_TEMPLATE_st { i64 4, i64 0, i64 0, ptr @.str.8, ptr @ESS_CERT_ID_V2_it }, %struct.ASN1_TEMPLATE_st { i64 5, i64 0, i64 8, ptr @.str.9, ptr @POLICYINFO_it }], align 16
@.str.1 = private unnamed_addr constant [20 x i8] c"ESS_SIGNING_CERT_V2\00", align 1
@ESS_ISSUER_SERIAL_it.local_it = internal constant { i8, [7 x i8], i64, ptr, i64, ptr, i64, ptr } { i8 1, [7 x i8] zeroinitializer, i64 16, ptr @ESS_ISSUER_SERIAL_seq_tt, i64 2, ptr null, i64 16, ptr @.str.2 }, align 8
@ESS_ISSUER_SERIAL_seq_tt = internal constant [2 x %struct.ASN1_TEMPLATE_st] [%struct.ASN1_TEMPLATE_st { i64 4, i64 0, i64 0, ptr @.str.3, ptr @GENERAL_NAME_it }, %struct.ASN1_TEMPLATE_st { i64 0, i64 0, i64 8, ptr @.str.4, ptr @ASN1_INTEGER_it }], align 16
@.str.2 = private unnamed_addr constant [18 x i8] c"ESS_ISSUER_SERIAL\00", align 1
@.str.3 = private unnamed_addr constant [7 x i8] c"issuer\00", align 1
@.str.4 = private unnamed_addr constant [7 x i8] c"serial\00", align 1
@ESS_CERT_ID_it.local_it = internal constant { i8, [7 x i8], i64, ptr, i64, ptr, i64, ptr } { i8 1, [7 x i8] zeroinitializer, i64 16, ptr @ESS_CERT_ID_seq_tt, i64 2, ptr null, i64 16, ptr @.str.5 }, align 8
@ESS_CERT_ID_seq_tt = internal constant [2 x %struct.ASN1_TEMPLATE_st] [%struct.ASN1_TEMPLATE_st { i64 0, i64 0, i64 0, ptr @.str.6, ptr @ASN1_OCTET_STRING_it }, %struct.ASN1_TEMPLATE_st { i64 1, i64 0, i64 8, ptr @.str.7, ptr @ESS_ISSUER_SERIAL_it }], align 16
@.str.5 = private unnamed_addr constant [12 x i8] c"ESS_CERT_ID\00", align 1
@.str.6 = private unnamed_addr constant [5 x i8] c"hash\00", align 1
@.str.7 = private unnamed_addr constant [14 x i8] c"issuer_serial\00", align 1
@.str.8 = private unnamed_addr constant [9 x i8] c"cert_ids\00", align 1
@.str.9 = private unnamed_addr constant [12 x i8] c"policy_info\00", align 1
@ESS_CERT_ID_V2_it.local_it = internal constant { i8, [7 x i8], i64, ptr, i64, ptr, i64, ptr } { i8 1, [7 x i8] zeroinitializer, i64 16, ptr @ESS_CERT_ID_V2_seq_tt, i64 3, ptr null, i64 24, ptr @.str.10 }, align 8
@ESS_CERT_ID_V2_seq_tt = internal constant [3 x %struct.ASN1_TEMPLATE_st] [%struct.ASN1_TEMPLATE_st { i64 1, i64 0, i64 0, ptr @.str.11, ptr @X509_ALGOR_it }, %struct.ASN1_TEMPLATE_st { i64 0, i64 0, i64 8, ptr @.str.6, ptr @ASN1_OCTET_STRING_it }, %struct.ASN1_TEMPLATE_st { i64 1, i64 0, i64 16, ptr @.str.7, ptr @ESS_ISSUER_SERIAL_it }], align 16
@.str.10 = private unnamed_addr constant [15 x i8] c"ESS_CERT_ID_V2\00", align 1
@.str.11 = private unnamed_addr constant [9 x i8] c"hash_alg\00", align 1

; Function Attrs: nounwind uwtable
define ptr @d2i_ESS_ISSUER_SERIAL(ptr noundef %0, ptr noundef %1, i64 noundef %2) local_unnamed_addr #0 {
  %4 = tail call ptr @ASN1_item_d2i(ptr noundef %0, ptr noundef %1, i64 noundef %2, ptr noundef nonnull @ESS_ISSUER_SERIAL_it.local_it) #3
  ret ptr %4
}

declare ptr @ASN1_item_d2i(ptr noundef, ptr noundef, i64 noundef, ptr noundef) local_unnamed_addr #1

; Function Attrs: mustprogress nofree norecurse nosync nounwind willreturn memory(none) uwtable
define internal noundef nonnull ptr @ESS_ISSUER_SERIAL_it() #2 {
  ret ptr @ESS_ISSUER_SERIAL_it.local_it
}

; Function Attrs: nounwind uwtable
define i32 @i2d_ESS_ISSUER_SERIAL(ptr noundef %0, ptr noundef %1) local_unnamed_addr #0 {
  %3 = tail call i32 @ASN1_item_i2d(ptr noundef %0, ptr noundef %1, ptr noundef nonnull @ESS_ISSUER_SERIAL_it.local_it) #3
  ret i32 %3
}

declare i32 @ASN1_item_i2d(ptr noundef, ptr noundef, ptr noundef) local_unnamed_addr #1

; Function Attrs: nounwind uwtable
define ptr @ESS_ISSUER_SERIAL_new() local_unnamed_addr #0 {
  %1 = tail call ptr @ASN1_item_new(ptr noundef nonnull @ESS_ISSUER_SERIAL_it.local_it) #3
  ret ptr %1
}

declare ptr @ASN1_item_new(ptr noundef) local_unnamed_addr #1

; Function Attrs: nounwind uwtable
define void @ESS_ISSUER_SERIAL_free(ptr noundef %0) local_unnamed_addr #0 {
  tail call void @ASN1_item_free(ptr noundef %0, ptr noundef nonnull @ESS_ISSUER_SERIAL_it.local_it) #3
  ret void
}

declare void @ASN1_item_free(ptr noundef, ptr noundef) local_unnamed_addr #1

; Function Attrs: nounwind uwtable
define ptr @ESS_ISSUER_SERIAL_dup(ptr noundef %0) local_unnamed_addr #0 {
  %2 = tail call ptr @ASN1_item_dup(ptr noundef nonnull @ESS_ISSUER_SERIAL_it.local_it, ptr noundef %0) #3
  ret ptr %2
}

declare ptr @ASN1_item_dup(ptr noundef, ptr noundef) local_unnamed_addr #1

; Function Attrs: nounwind uwtable
define ptr @d2i_ESS_CERT_ID(ptr noundef %0, ptr noundef %1, i64 noundef %2) local_unnamed_addr #0 {
  %4 = tail call ptr @ASN1_item_d2i(ptr noundef %0, ptr noundef %1, i64 noundef %2, ptr noundef nonnull @ESS_CERT_ID_it.local_it) #3
  ret ptr %4
}

; Function Attrs: mustprogress nofree norecurse nosync nounwind willreturn memory(none) uwtable
define internal noundef nonnull ptr @ESS_CERT_ID_it() #2 {
  ret ptr @ESS_CERT_ID_it.local_it
}

; Function Attrs: nounwind uwtable
define i32 @i2d_ESS_CERT_ID(ptr noundef %0, ptr noundef %1) local_unnamed_addr #0 {
  %3 = tail call i32 @ASN1_item_i2d(ptr noundef %0, ptr noundef %1, ptr noundef nonnull @ESS_CERT_ID_it.local_it) #3
  ret i32 %3
}

; Function Attrs: nounwind uwtable
define ptr @ESS_CERT_ID_new() local_unnamed_addr #0 {
  %1 = tail call ptr @ASN1_item_new(ptr noundef nonnull @ESS_CERT_ID_it.local_it) #3
  ret ptr %1
}

; Function Attrs: nounwind uwtable
define void @ESS_CERT_ID_free(ptr noundef %0) local_unnamed_addr #0 {
  tail call void @ASN1_item_free(ptr noundef %0, ptr noundef nonnull @ESS_CERT_ID_it.local_it) #3
  ret void
}

; Function Attrs: nounwind uwtable
define ptr @ESS_CERT_ID_dup(ptr noundef %0) local_unnamed_addr #0 {
  %2 = tail call ptr @ASN1_item_dup(ptr noundef nonnull @ESS_CERT_ID_it.local_it, ptr noundef %0) #3
  ret ptr %2
}

; Function Attrs: mustprogress nofree norecurse nosync nounwind willreturn memory(none) uwtable
define noundef nonnull ptr @ESS_SIGNING_CERT_it() local_unnamed_addr #2 {
  ret ptr @ESS_SIGNING_CERT_it.local_it
}

; Function Attrs: nounwind uwtable
define ptr @d2i_ESS_SIGNING_CERT(ptr noundef %0, ptr noundef %1, i64 noundef %2) local_unnamed_addr #0 {
  %4 = tail call ptr @ASN1_item_d2i(ptr noundef %0, ptr noundef %1, i64 noundef %2, ptr noundef nonnull @ESS_SIGNING_CERT_it.local_it) #3
  ret ptr %4
}

; Function Attrs: nounwind uwtable
define i32 @i2d_ESS_SIGNING_CERT(ptr noundef %0, ptr noundef %1) local_unnamed_addr #0 {
  %3 = tail call i32 @ASN1_item_i2d(ptr noundef %0, ptr noundef %1, ptr noundef nonnull @ESS_SIGNING_CERT_it.local_it) #3
  ret i32 %3
}

; Function Attrs: nounwind uwtable
define ptr @ESS_SIGNING_CERT_new() local_unnamed_addr #0 {
  %1 = tail call ptr @ASN1_item_new(ptr noundef nonnull @ESS_SIGNING_CERT_it.local_it) #3
  ret ptr %1
}

; Function Attrs: nounwind uwtable
define void @ESS_SIGNING_CERT_free(ptr noundef %0) local_unnamed_addr #0 {
  tail call void @ASN1_item_free(ptr noundef %0, ptr noundef nonnull @ESS_SIGNING_CERT_it.local_it) #3
  ret void
}

; Function Attrs: nounwind uwtable
define ptr @ESS_SIGNING_CERT_dup(ptr noundef %0) local_unnamed_addr #0 {
  %2 = tail call ptr @ASN1_item_dup(ptr noundef nonnull @ESS_SIGNING_CERT_it.local_it, ptr noundef %0) #3
  ret ptr %2
}

; Function Attrs: nounwind uwtable
define ptr @d2i_ESS_CERT_ID_V2(ptr noundef %0, ptr noundef %1, i64 noundef %2) local_unnamed_addr #0 {
  %4 = tail call ptr @ASN1_item_d2i(ptr noundef %0, ptr noundef %1, i64 noundef %2, ptr noundef nonnull @ESS_CERT_ID_V2_it.local_it) #3
  ret ptr %4
}

; Function Attrs: mustprogress nofree norecurse nosync nounwind willreturn memory(none) uwtable
define internal noundef nonnull ptr @ESS_CERT_ID_V2_it() #2 {
  ret ptr @ESS_CERT_ID_V2_it.local_it
}

; Function Attrs: nounwind uwtable
define i32 @i2d_ESS_CERT_ID_V2(ptr noundef %0, ptr noundef %1) local_unnamed_addr #0 {
  %3 = tail call i32 @ASN1_item_i2d(ptr noundef %0, ptr noundef %1, ptr noundef nonnull @ESS_CERT_ID_V2_it.local_it) #3
  ret i32 %3
}

; Function Attrs: nounwind uwtable
define ptr @ESS_CERT_ID_V2_new() local_unnamed_addr #0 {
  %1 = tail call ptr @ASN1_item_new(ptr noundef nonnull @ESS_CERT_ID_V2_it.local_it) #3
  ret ptr %1
}

; Function Attrs: nounwind uwtable
define void @ESS_CERT_ID_V2_free(ptr noundef %0) local_unnamed_addr #0 {
  tail call void @ASN1_item_free(ptr noundef %0, ptr noundef nonnull @ESS_CERT_ID_V2_it.local_it) #3
  ret void
}

; Function Attrs: nounwind uwtable
define ptr @ESS_CERT_ID_V2_dup(ptr noundef %0) local_unnamed_addr #0 {
  %2 = tail call ptr @ASN1_item_dup(ptr noundef nonnull @ESS_CERT_ID_V2_it.local_it, ptr noundef %0) #3
  ret ptr %2
}

; Function Attrs: mustprogress nofree norecurse nosync nounwind willreturn memory(none) uwtable
define noundef nonnull ptr @ESS_SIGNING_CERT_V2_it() local_unnamed_addr #2 {
  ret ptr @ESS_SIGNING_CERT_V2_it.local_it
}

; Function Attrs: nounwind uwtable
define ptr @d2i_ESS_SIGNING_CERT_V2(ptr noundef %0, ptr noundef %1, i64 noundef %2) local_unnamed_addr #0 {
  %4 = tail call ptr @ASN1_item_d2i(ptr noundef %0, ptr noundef %1, i64 noundef %2, ptr noundef nonnull @ESS_SIGNING_CERT_V2_it.local_it) #3
  ret ptr %4
}

; Function Attrs: nounwind uwtable
define i32 @i2d_ESS_SIGNING_CERT_V2(ptr noundef %0, ptr noundef %1) local_unnamed_addr #0 {
  %3 = tail call i32 @ASN1_item_i2d(ptr noundef %0, ptr noundef %1, ptr noundef nonnull @ESS_SIGNING_CERT_V2_it.local_it) #3
  ret i32 %3
}

; Function Attrs: nounwind uwtable
define ptr @ESS_SIGNING_CERT_V2_new() local_unnamed_addr #0 {
  %1 = tail call ptr @ASN1_item_new(ptr noundef nonnull @ESS_SIGNING_CERT_V2_it.local_it) #3
  ret ptr %1
}

; Function Attrs: nounwind uwtable
define void @ESS_SIGNING_CERT_V2_free(ptr noundef %0) local_unnamed_addr #0 {
  tail call void @ASN1_item_free(ptr noundef %0, ptr noundef nonnull @ESS_SIGNING_CERT_V2_it.local_it) #3
  ret void
}

; Function Attrs: nounwind uwtable
define ptr @ESS_SIGNING_CERT_V2_dup(ptr noundef %0) local_unnamed_addr #0 {
  %2 = tail call ptr @ASN1_item_dup(ptr noundef nonnull @ESS_SIGNING_CERT_V2_it.local_it, ptr noundef %0) #3
  ret ptr %2
}

declare ptr @GENERAL_NAME_it() #1

declare ptr @ASN1_INTEGER_it() #1

declare ptr @ASN1_OCTET_STRING_it() #1

declare ptr @POLICYINFO_it() #1

declare ptr @X509_ALGOR_it() #1


!llvm.module.flags = !{!0, !1, !2}

!0 = !{i32 1, !"wchar_size", i32 4}
!1 = !{i32 8, !"PIC Level", i32 2}
!2 = !{i32 7, !"uwtable", i32 2}
